target datalayout = "e-m:e-p270:32:32-p271:32:32-p272:64:64-i64:64-i128:128-f80:128-n8:16:32:64-S128"
target triple = "x86_64-pc-linux-gnu"

%struct.tag_ALSA_MIDIDeviceDescription = type { i32, i32, i32, ptr, ptr }

@.str.3 = private unnamed_addr constant [2 x i8] c"]\00", align 1
@.str.4 = private unnamed_addr constant [3 x i8] c", \00", align 1

; Function Attrs: nounwind uwtable
define internal i32 @deviceInfoIterator(i32 noundef %0, ptr noundef %1, ptr noundef %2, ptr noundef %3) #0 {
  %5 = alloca i32, align 4
  %6 = alloca i32, align 4
  %7 = alloca ptr, align 8
  %8 = alloca ptr, align 8
  %9 = alloca ptr, align 8
  %10 = alloca [300 x i8], align 16
  %11 = alloca ptr, align 8
  %12 = alloca i32, align 4
  store i32 %0, ptr %6, align 4
  store ptr %1, ptr %7, align 8
  store ptr %2, ptr %8, align 8
  store ptr %3, ptr %9, align 8
  %13 = load ptr, ptr %9, align 8
  store ptr %13, ptr %11, align 8
  store i32 0, ptr %12, align 4
  call void (...) @initAlsaSupport()
  %14 = load ptr, ptr %11, align 8
  %15 = getelementptr inbounds %struct.tag_ALSA_MIDIDeviceDescription, ptr %14, i32 0, i32 0
  %16 = load i32, ptr %15, align 8
  %17 = icmp eq i32 %16, 0
  br i1 %17, label %18, label %142

18:                                               ; preds = %4
  %19 = load i32, ptr %6, align 4
  %20 = load ptr, ptr %11, align 8
  %21 = getelementptr inbounds %struct.tag_ALSA_MIDIDeviceDescription, ptr %20, i32 0, i32 2
  store i32 %19, ptr %21, align 8
  %22 = getelementptr inbounds [300 x i8], ptr %10, i64 0, i64 0
  store i8 32, ptr %22, align 16
  %23 = getelementptr inbounds [300 x i8], ptr %10, i64 0, i64 1
  store i8 91, ptr %23, align 1
  %24 = getelementptr inbounds [300 x i8], ptr %10, i64 0, i64 2
  %25 = load i32, ptr %6, align 4
  %26 = load i32, ptr %12, align 4
  call void @getDeviceStringFromDeviceID(ptr noundef %24, i64 noundef 298, i32 noundef %25, i32 noundef %26, i32 noundef 1)
  %27 = getelementptr inbounds [300 x i8], ptr %10, i64 0, i64 0
  %28 = getelementptr inbounds [300 x i8], ptr %10, i64 0, i64 0
  %29 = call i64 @strlen(ptr noundef %28) #7
  %30 = sub i64 300, %29
  %31 = sub i64 %30, 1
  %32 = call ptr @strncat(ptr noundef %27, ptr noundef @.str.3, i64 noundef %31) #5
  %33 = load ptr, ptr %11, align 8
  %34 = getelementptr inbounds %struct.tag_ALSA_MIDIDeviceDescription, ptr %33, i32 0, i32 3
  %35 = load ptr, ptr %34, align 8
  %36 = load ptr, ptr %8, align 8
  %37 = icmp ne ptr %36, null
  br i1 %37, label %38, label %41

38:                                               ; preds = %18
  %39 = load ptr, ptr %8, align 8
  %40 = call ptr @snd_ctl_card_info_get_id(ptr noundef %39)
  br label %44

41:                                               ; preds = %18
  %42 = load ptr, ptr %7, align 8
  %43 = call ptr @snd_rawmidi_info_get_id(ptr noundef %42)
  br label %44

44:                                               ; preds = %41, %38
  %45 = phi ptr [ %40, %38 ], [ %43, %41 ]
  %46 = load ptr, ptr %11, align 8
  %47 = getelementptr inbounds %struct.tag_ALSA_MIDIDeviceDescription, ptr %46, i32 0, i32 1
  %48 = load i32, ptr %47, align 4
  %49 = sext i32 %48 to i64
  %50 = getelementptr inbounds [300 x i8], ptr %10, i64 0, i64 0
  %51 = call i64 @strlen(ptr noundef %50) #7
  %52 = sub i64 %49, %51
  %53 = call ptr @strncpy(ptr noundef %35, ptr noundef %45, i64 noundef %52) #5
  %54 = load ptr, ptr %11, align 8
  %55 = getelementptr inbounds %struct.tag_ALSA_MIDIDeviceDescription, ptr %54, i32 0, i32 3
  %56 = load ptr, ptr %55, align 8
  %57 = getelementptr inbounds [300 x i8], ptr %10, i64 0, i64 0
  %58 = load ptr, ptr %11, align 8
  %59 = getelementptr inbounds %struct.tag_ALSA_MIDIDeviceDescription, ptr %58, i32 0, i32 1
  %60 = load i32, ptr %59, align 4
  %61 = sext i32 %60 to i64
  %62 = load ptr, ptr %11, align 8
  %63 = getelementptr inbounds %struct.tag_ALSA_MIDIDeviceDescription, ptr %62, i32 0, i32 3
  %64 = load ptr, ptr %63, align 8
  %65 = call i64 @strlen(ptr noundef %64) #7
  %66 = sub i64 %61, %65
  %67 = call ptr @strncat(ptr noundef %56, ptr noundef %57, i64 noundef %66) #5
  %68 = load ptr, ptr %11, align 8
  %69 = getelementptr inbounds %struct.tag_ALSA_MIDIDeviceDescription, ptr %68, i32 0, i32 4
  %70 = load ptr, ptr %69, align 8
  %71 = getelementptr inbounds i8, ptr %70, i64 0
  store i8 0, ptr %71, align 1
  %72 = load ptr, ptr %8, align 8
  %73 = icmp ne ptr %72, null
  br i1 %73, label %74, label %98

74:                                               ; preds = %44
  %75 = load ptr, ptr %11, align 8
  %76 = getelementptr inbounds %struct.tag_ALSA_MIDIDeviceDescription, ptr %75, i32 0, i32 4
  %77 = load ptr, ptr %76, align 8
  %78 = load ptr, ptr %8, align 8
  %79 = call ptr @snd_ctl_card_info_get_name(ptr noundef %78)
  %80 = load ptr, ptr %11, align 8
  %81 = getelementptr inbounds %struct.tag_ALSA_MIDIDeviceDescription, ptr %80, i32 0, i32 1
  %82 = load i32, ptr %81, align 4
  %83 = sext i32 %82 to i64
  %84 = call ptr @strncpy(ptr noundef %77, ptr noundef %79, i64 noundef %83) #5
  %85 = load ptr, ptr %11, align 8
  %86 = getelementptr inbounds %struct.tag_ALSA_MIDIDeviceDescription, ptr %85, i32 0, i32 4
  %87 = load ptr, ptr %86, align 8
  %88 = load ptr, ptr %11, align 8
  %89 = getelementptr inbounds %struct.tag_ALSA_MIDIDeviceDescription, ptr %88, i32 0, i32 1
  %90 = load i32, ptr %89, align 4
  %91 = sext i32 %90 to i64
  %92 = load ptr, ptr %11, align 8
  %93 = getelementptr inbounds %struct.tag_ALSA_MIDIDeviceDescription, ptr %92, i32 0, i32 4
  %94 = load ptr, ptr %93, align 8
  %95 = call i64 @strlen(ptr noundef %94) #7
  %96 = sub i64 %91, %95
  %97 = call ptr @strncat(ptr noundef %87, ptr noundef @.str.4, i64 noundef %96) #5
  br label %98

98:                                               ; preds = %74, %44
  %99 = load ptr, ptr %11, align 8
  %100 = getelementptr inbounds %struct.tag_ALSA_MIDIDeviceDescription, ptr %99, i32 0, i32 4
  %101 = load ptr, ptr %100, align 8
  %102 = load ptr, ptr %7, align 8
  %103 = call ptr @snd_rawmidi_info_get_id(ptr noundef %102)
  %104 = load ptr, ptr %11, align 8
  %105 = getelementptr inbounds %struct.tag_ALSA_MIDIDeviceDescription, ptr %104, i32 0, i32 1
  %106 = load i32, ptr %105, align 4
  %107 = sext i32 %106 to i64
  %108 = load ptr, ptr %11, align 8
  %109 = getelementptr inbounds %struct.tag_ALSA_MIDIDeviceDescription, ptr %108, i32 0, i32 4
  %110 = load ptr, ptr %109, align 8
  %111 = call i64 @strlen(ptr noundef %110) #7
  %112 = sub i64 %107, %111
  %113 = call ptr @strncat(ptr noundef %101, ptr noundef %103, i64 noundef %112) #5
  %114 = load ptr, ptr %11, align 8
  %115 = getelementptr inbounds %struct.tag_ALSA_MIDIDeviceDescription, ptr %114, i32 0, i32 4
  %116 = load ptr, ptr %115, align 8
  %117 = load ptr, ptr %11, align 8
  %118 = getelementptr inbounds %struct.tag_ALSA_MIDIDeviceDescription, ptr %117, i32 0, i32 1
  %119 = load i32, ptr %118, align 4
  %120 = sext i32 %119 to i64
  %121 = load ptr, ptr %11, align 8
  %122 = getelementptr inbounds %struct.tag_ALSA_MIDIDeviceDescription, ptr %121, i32 0, i32 4
  %123 = load ptr, ptr %122, align 8
  %124 = call i64 @strlen(ptr noundef %123) #7
  %125 = sub i64 %120, %124
  %126 = call ptr @strncat(ptr noundef %116, ptr noundef @.str.4, i64 noundef %125) #5
  %127 = load ptr, ptr %11, align 8
  %128 = getelementptr inbounds %struct.tag_ALSA_MIDIDeviceDescription, ptr %127, i32 0, i32 4
  %129 = load ptr, ptr %128, align 8
  %130 = load ptr, ptr %7, align 8
  %131 = call ptr @snd_rawmidi_info_get_name(ptr noundef %130)
  %132 = load ptr, ptr %11, align 8
  %133 = getelementptr inbounds %struct.tag_ALSA_MIDIDeviceDescription, ptr %132, i32 0, i32 1
  %134 = load i32, ptr %133, align 4
  %135 = sext i32 %134 to i64
  %136 = load ptr, ptr %11, align 8
  %137 = getelementptr inbounds %struct.tag_ALSA_MIDIDeviceDescription, ptr %136, i32 0, i32 4
  %138 = load ptr, ptr %137, align 8
  %139 = call i64 @strlen(ptr noundef %138) #7
  %140 = sub i64 %135, %139
  %141 = call ptr @strncat(ptr noundef %129, ptr noundef %131, i64 noundef %140) #5
  store i32 0, ptr %5, align 4
  br label %147

142:                                              ; preds = %4
  %143 = load ptr, ptr %11, align 8
  %144 = getelementptr inbounds %struct.tag_ALSA_MIDIDeviceDescription, ptr %143, i32 0, i32 0
  %145 = load i32, ptr %144, align 8
  %146 = add nsw i32 %145, -1
  store i32 %146, ptr %144, align 8
  store i32 1, ptr %5, align 4
  br label %147

147:                                              ; preds = %142, %98
  %148 = load i32, ptr %5, align 4
  ret i32 %148
}