; Function Attrs: nounwind uwtable
define internal range(i32 0, 2) i32 @deviceInfoIterator(i32 noundef %0, ptr noundef %1, ptr noundef %2, ptr nocapture noundef %3) #0 {
  %5 = alloca [300 x i8], align 16
  tail call void (...) @initAlsaSupport() #12
  %6 = load i32, ptr %3, align 8
  %7 = icmp eq i32 %6, 0
  br i1 %7, label %8, label %72

8:                                                ; preds = %4
  %9 = getelementptr inbounds i8, ptr %3, i64 8
  store i32 %0, ptr %9, align 8
  store i8 32, ptr %5, align 16
  %10 = getelementptr inbounds i8, ptr %5, i64 1
  store i8 91, ptr %10, align 1
  %11 = getelementptr inbounds i8, ptr %5, i64 2
  call void @getDeviceStringFromDeviceID(ptr noundef nonnull %11, i64 noundef 298, i32 noundef %0, i32 noundef 0, i32 noundef 1) #12
  %12 = call i64 @strlen(ptr noundef nonnull dereferenceable(1) %5) #14
  %13 = sub i64 299, %12
  %14 = call ptr @strncat(ptr noundef nonnull dereferenceable(1) %5, ptr noundef nonnull @.str.3, i64 noundef %13) #12
  %15 = getelementptr inbounds i8, ptr %3, i64 16
  %16 = load ptr, ptr %15, align 8
  %.not = icmp eq ptr %2, null
  br i1 %.not, label %19, label %17

17:                                               ; preds = %8
  %18 = call ptr @snd_ctl_card_info_get_id(ptr noundef nonnull %2) #12
  br label %21

19:                                               ; preds = %8
  %20 = call ptr @snd_rawmidi_info_get_id(ptr noundef %1) #12
  br label %21

21:                                               ; preds = %19, %17
  %22 = phi ptr [ %18, %17 ], [ %20, %19 ]
  %23 = getelementptr inbounds i8, ptr %3, i64 4
  %24 = load i32, ptr %23, align 4
  %25 = sext i32 %24 to i64
  %26 = call i64 @strlen(ptr noundef nonnull dereferenceable(1) %5) #14
  %27 = sub i64 %25, %26
  %28 = call ptr @strncpy(ptr noundef %16, ptr noundef %22, i64 noundef %27) #12
  %29 = load ptr, ptr %15, align 8
  %30 = load i32, ptr %23, align 4
  %31 = sext i32 %30 to i64
  %32 = call i64 @strlen(ptr noundef nonnull dereferenceable(1) %29) #14
  %33 = sub i64 %31, %32
  %34 = call ptr @strncat(ptr noundef nonnull dereferenceable(1) %29, ptr noundef nonnull %5, i64 noundef %33) #12
  %35 = getelementptr inbounds i8, ptr %3, i64 24
  %36 = load ptr, ptr %35, align 8
  store i8 0, ptr %36, align 1
  br i1 %.not, label %49, label %37

37:                                               ; preds = %21
  %38 = load ptr, ptr %35, align 8
  %39 = call ptr @snd_ctl_card_info_get_name(ptr noundef nonnull %2) #12
  %40 = load i32, ptr %23, align 4
  %41 = sext i32 %40 to i64
  %42 = call ptr @strncpy(ptr noundef %38, ptr noundef %39, i64 noundef %41) #12
  %43 = load ptr, ptr %35, align 8
  %44 = load i32, ptr %23, align 4
  %45 = sext i32 %44 to i64
  %46 = call i64 @strlen(ptr noundef nonnull dereferenceable(1) %43) #14
  %47 = sub i64 %45, %46
  %48 = call ptr @strncat(ptr noundef nonnull dereferenceable(1) %43, ptr noundef nonnull @.str.4, i64 noundef %47) #12
  br label %49

49:                                               ; preds = %37, %21
  %50 = load ptr, ptr %35, align 8
  %51 = call ptr @snd_rawmidi_info_get_id(ptr noundef %1) #12
  %52 = load i32, ptr %23, align 4
  %53 = sext i32 %52 to i64
  %54 = load ptr, ptr %35, align 8
  %55 = call i64 @strlen(ptr noundef nonnull dereferenceable(1) %54) #14
  %56 = sub i64 %53, %55
  %57 = call ptr @strncat(ptr noundef nonnull dereferenceable(1) %50, ptr noundef %51, i64 noundef %56) #12
  %58 = load ptr, ptr %35, align 8
  %59 = load i32, ptr %23, align 4
  %60 = sext i32 %59 to i64
  %61 = call i64 @strlen(ptr noundef nonnull dereferenceable(1) %58) #14
  %62 = sub i64 %60, %61
  %63 = call ptr @strncat(ptr noundef nonnull dereferenceable(1) %58, ptr noundef nonnull @.str.4, i64 noundef %62) #12
  %64 = load ptr, ptr %35, align 8
  %65 = call ptr @snd_rawmidi_info_get_name(ptr noundef %1) #12
  %66 = load i32, ptr %23, align 4
  %67 = sext i32 %66 to i64
  %68 = load ptr, ptr %35, align 8
  %69 = call i64 @strlen(ptr noundef nonnull dereferenceable(1) %68) #14
  %70 = sub i64 %67, %69
  %71 = call ptr @strncat(ptr noundef nonnull dereferenceable(1) %64, ptr noundef %65, i64 noundef %70) #12
  br label %74

72:                                               ; preds = %4
  %73 = add nsw i32 %6, -1
  store i32 %73, ptr %3, align 8
  br label %74

74:                                               ; preds = %72, %49
  %.0 = phi i32 [ 0, %49 ], [ 1, %72 ]
  ret i32 %.0
}